target datalayout = "e-m:e-p270:32:32-p271:32:32-p272:64:64-i64:64-i128:128-f80:128-n8:16:32:64-S128"
target triple = "x86_64-pc-linux-gnu"

; Function Attrs: nounwind uwtable
define internal zeroext i1 @DestroyOnePhysicalAudioDevice(ptr noundef %0, ptr noundef %1, ptr noundef %2, ptr noundef %3) #0 {
  %5 = alloca ptr, align 8
  %6 = alloca ptr, align 8
  %7 = alloca ptr, align 8
  %8 = alloca ptr, align 8
  %9 = alloca i32, align 4
  %10 = alloca i8, align 1
  %11 = alloca ptr, align 8
  store ptr %0, ptr %5, align 8
  store ptr %1, ptr %6, align 8
  store ptr %2, ptr %7, align 8
  store ptr %3, ptr %8, align 8
  call void @llvm.lifetime.start.p0(i64 4, ptr %9) #6
  %12 = load ptr, ptr %7, align 8
  %13 = ptrtoint ptr %12 to i64
  %14 = trunc i64 %13 to i32
  store i32 %14, ptr %9, align 4
  call void @llvm.lifetime.start.p0(i64 1, ptr %10) #6
  %15 = load i32, ptr %9, align 4
  %16 = and i32 %15, 2
  %17 = icmp ne i32 %16, 0
  %18 = xor i1 %17, true
  %19 = xor i1 %18, true
  %20 = zext i1 %19 to i8
  store i8 %20, ptr %10, align 1
  %21 = load i8, ptr %10, align 1, !range !5, !noundef !6
  %22 = trunc i8 %21 to i1
  br i1 %22, label %23, label %29

23:                                               ; preds = %4
  call void @llvm.lifetime.start.p0(i64 8, ptr %11) #6
  %24 = load ptr, ptr %8, align 8
  store ptr %24, ptr %11, align 8
  br label %25

25:                                               ; preds = %23
  br label %26

26:                                               ; preds = %25
  br label %27

27:                                               ; preds = %26
  %28 = load ptr, ptr %11, align 8
  call void @DestroyPhysicalAudioDevice(ptr noundef %28)
  call void @llvm.lifetime.end.p0(i64 8, ptr %11) #6
  br label %29

29:                                               ; preds = %27, %4
  call void @llvm.lifetime.end.p0(i64 1, ptr %10) #6
  call void @llvm.lifetime.end.p0(i64 4, ptr %9) #6
  ret i1 true
}