; Function Attrs: nounwind uwtable
define internal noundef zeroext i1 @DestroyOnePhysicalAudioDevice(ptr readnone captures(none) %0, ptr readnone captures(none) %1, ptr noundef %2, ptr noundef %3) #0 {
  %5 = ptrtoint ptr %2 to i64
  %6 = and i64 %5, 2
  %.not = icmp eq i64 %6, 0
  br i1 %.not, label %8, label %7

7:                                                ; preds = %4
  tail call fastcc void @DestroyPhysicalAudioDevice(ptr noundef %3)
  br label %8

8:                                                ; preds = %7, %4
  ret i1 true
}